; Function Attrs: nounwind uwtable
define hidden noundef signext i8 @nfaExecSheng_reportCurrent(ptr noundef readonly captures(none) %0, ptr noundef readonly captures(none) %1) local_unnamed_addr #1 {
  %3 = getelementptr inbounds nuw i8, ptr %0, i64 64
  %4 = getelementptr inbounds nuw i8, ptr %1, i64 88
  %5 = load ptr, ptr %4, align 8
  %6 = getelementptr inbounds nuw i8, ptr %1, i64 96
  %7 = load ptr, ptr %6, align 8
  %8 = getelementptr inbounds nuw i8, ptr %1, i64 16
  %9 = load ptr, ptr %8, align 8
  %10 = load i8, ptr %9, align 1
  %11 = getelementptr inbounds nuw i8, ptr %0, i64 4164
  %12 = load i32, ptr %11, align 4
  %13 = add i32 %12, -64
  %14 = shl i8 %10, 4
  %15 = zext i8 %14 to i32
  %16 = add i32 %13, %15
  %17 = zext i32 %16 to i64
  %18 = getelementptr inbounds nuw i8, ptr %3, i64 %17
  %19 = getelementptr inbounds nuw i8, ptr %1, i64 32
  %20 = load i64, ptr %19, align 8
  %21 = getelementptr inbounds nuw i8, ptr %1, i64 8
  %22 = load i32, ptr %21, align 8
  %23 = zext i32 %22 to i64
  %.idx.i = mul nuw nsw i64 %23, 24
  %24 = getelementptr i8, ptr %1, i64 112
  %25 = getelementptr i8, ptr %24, i64 %.idx.i
  %26 = load i64, ptr %25, align 8
  %27 = add i64 %26, %20
  %28 = load i32, ptr %18, align 4
  %.not = icmp eq i32 %28, 0
  br i1 %.not, label %fireReports.exit, label %29

29:                                               ; preds = %2
  %30 = getelementptr inbounds nuw i8, ptr %0, i64 4179
  %31 = load i8, ptr %30, align 1
  %32 = and i8 %31, 1
  %.not17 = icmp eq i8 %32, 0
  br i1 %.not17, label %36, label %33

33:                                               ; preds = %29
  %34 = getelementptr inbounds nuw i8, ptr %0, i64 4180
  %35 = load i32, ptr %34, align 4
  br label %fireReports.exit.sink.split

36:                                               ; preds = %29
  %37 = icmp eq i8 %10, 0
  br i1 %37, label %fireReports.exit.sink.split, label %38

38:                                               ; preds = %36
  %39 = zext i32 %28 to i64
  %40 = getelementptr inbounds nuw i8, ptr %3, i64 %39
  %41 = getelementptr inbounds i8, ptr %40, i64 -64
  %42 = load i32, ptr %41, align 4
  %43 = getelementptr inbounds i8, ptr %40, i64 -60
  switch i32 %42, label %.lr.ph.preheader [
    i32 1, label %44
    i32 0, label %fireReports.exit
  ]

.lr.ph.preheader:                                 ; preds = %38
  %wide.trip.count = zext i32 %42 to i64
  br label %.lr.ph

44:                                               ; preds = %38
  %45 = load i32, ptr %43, align 4
  br label %fireReports.exit.sink.split

.lr.ph:                                           ; preds = %.lr.ph, %.lr.ph.preheader
  %indvars.iv = phi i64 [ 0, %.lr.ph.preheader ], [ %indvars.iv.next, %.lr.ph ]
  %46 = getelementptr inbounds nuw [0 x i32], ptr %43, i64 0, i64 %indvars.iv
  %47 = load i32, ptr %46, align 4
  %48 = tail call i32 %5(i64 noundef 0, i64 noundef %27, i32 noundef %47, ptr noundef %7) #11
  %49 = icmp eq i32 %48, 0
  %indvars.iv.next = add nuw nsw i64 %indvars.iv, 1
  %exitcond.not = icmp eq i64 %indvars.iv.next, %wide.trip.count
  %or.cond = select i1 %49, i1 true, i1 %exitcond.not
  br i1 %or.cond, label %fireReports.exit, label %.lr.ph

fireReports.exit.sink.split:                      ; preds = %36, %33, %44
  %.sink = phi i32 [ %45, %44 ], [ %35, %33 ], [ 0, %36 ]
  %50 = tail call i32 %5(i64 noundef 0, i64 noundef %27, i32 noundef %.sink, ptr noundef %7) #11
  br label %fireReports.exit

fireReports.exit:                                 ; preds = %.lr.ph, %fireReports.exit.sink.split, %38, %2
  ret i8 0
}